target datalayout = "e-m:e-p270:32:32-p271:32:32-p272:64:64-i64:64-i128:128-f80:128-n8:16:32:64-S128"
target triple = "x86_64-pc-linux-gnu"

%struct.zstream = type { i64, i64, i64, i64, %struct.z_stream_s, ptr }
%struct.z_stream_s = type { ptr, i32, i64, ptr, i32, i64, ptr, ptr, ptr, ptr, ptr, i32, i64, i64 }
%struct.gzfile = type { %struct.zstream, i64, i32, i32, i64, i64, i64, i64, i32, i32, i64, ptr, ptr, ptr, ptr, i64, i64 }
%struct.RString = type { %struct.RBasic, i64, %union.anon }
%struct.RBasic = type { i64, i64 }
%union.anon = type { %struct.anon }
%struct.anon = type { ptr, %union.anon.0 }
%union.anon.0 = type { i64 }
%struct.anon.1 = type { [1 x i8] }

; Function Attrs: inlinehint nounwind sspstrong willreturn memory(read) uwtable
define internal i64 @RB_FL_TEST_RAW(i64 noundef %0, i64 noundef %1) #6 {
  %3 = alloca i64, align 8
  %4 = alloca i64, align 8
  store i64 %0, ptr %3, align 8, !tbaa !6
  store i64 %1, ptr %4, align 8, !tbaa !6
  %5 = load i64, ptr %3, align 8, !tbaa !6
  %6 = inttoptr i64 %5 to ptr
  %7 = getelementptr inbounds nuw %struct.RBasic, ptr %6, i32 0, i32 0
  %8 = load i64, ptr %7, align 8, !tbaa !91
  %9 = load i64, ptr %4, align 8, !tbaa !6
  %10 = and i64 %8, %9
  ret i64 %10
}

; Function Attrs: inlinehint nounwind sspstrong willreturn memory(read) uwtable
define internal zeroext i1 @RB_FL_ANY_RAW(i64 noundef %0, i64 noundef %1) #6 {
  %3 = alloca i64, align 8
  %4 = alloca i64, align 8
  store i64 %0, ptr %3, align 8, !tbaa !6
  store i64 %1, ptr %4, align 8, !tbaa !6
  %5 = load i64, ptr %3, align 8, !tbaa !6
  %6 = load i64, ptr %4, align 8, !tbaa !6
  %7 = call i64 @RB_FL_TEST_RAW(i64 noundef %5, i64 noundef %6) #25
  %8 = icmp ne i64 %7, 0
  ret i1 %8
}

; Function Attrs: inlinehint nounwind sspstrong willreturn memory(read, argmem: readwrite) uwtable
define internal void @rbimpl_rstring_getmem(ptr dead_on_unwind noalias writable sret(%struct.RString) align 8 %0, i64 noundef %1) #9 {
  %3 = alloca i64, align 8
  store i64 %1, ptr %3, align 8, !tbaa !6
  %4 = load i64, ptr %3, align 8, !tbaa !6
  %5 = call zeroext i1 @RB_FL_ANY_RAW(i64 noundef %4, i64 noundef 8192) #25
  br i1 %5, label %6, label %9

6:                                                ; preds = %2
  %7 = load i64, ptr %3, align 8, !tbaa !6
  %8 = inttoptr i64 %7 to ptr
  call void @llvm.memcpy.p0.p0.i64(ptr align 8 %0, ptr align 8 %8, i64 40, i1 false), !tbaa.struct !92
  br label %20

9:                                                ; preds = %2
  %10 = load i64, ptr %3, align 8, !tbaa !6
  %11 = call i64 @RSTRING_LEN(i64 noundef %10) #25
  %12 = getelementptr inbounds nuw %struct.RString, ptr %0, i32 0, i32 1
  store i64 %11, ptr %12, align 8, !tbaa !88
  %13 = load i64, ptr %3, align 8, !tbaa !6
  %14 = inttoptr i64 %13 to ptr
  %15 = getelementptr inbounds nuw %struct.RString, ptr %14, i32 0, i32 2
  %16 = getelementptr inbounds nuw %struct.anon.1, ptr %15, i32 0, i32 0
  %17 = getelementptr inbounds [1 x i8], ptr %16, i64 0, i64 0
  %18 = getelementptr inbounds nuw %struct.RString, ptr %0, i32 0, i32 2
  %19 = getelementptr inbounds nuw %struct.anon, ptr %18, i32 0, i32 0
  store ptr %17, ptr %19, align 8, !tbaa !68
  br label %20

20:                                               ; preds = %9, %6
  ret void
}

; Function Attrs: nounwind sspstrong uwtable
define internal void @gzfile_calc_crc(ptr noundef %0, i64 noundef %1) #0 {
  %3 = alloca ptr, align 8
  %4 = alloca i64, align 8
  store ptr %0, ptr %3, align 8, !tbaa !57
  store i64 %1, ptr %4, align 8, !tbaa !6
  %5 = load i64, ptr %4, align 8, !tbaa !6
  %6 = call i64 @RSTRING_LEN(i64 noundef %5) #25
  %7 = load ptr, ptr %3, align 8, !tbaa !57
  %8 = getelementptr inbounds nuw %struct.gzfile, ptr %7, i32 0, i32 10
  %9 = load i64, ptr %8, align 8, !tbaa !139
  %10 = icmp sle i64 %6, %9
  br i1 %10, label %11, label %18

11:                                               ; preds = %2
  %12 = load i64, ptr %4, align 8, !tbaa !6
  %13 = call i64 @RSTRING_LEN(i64 noundef %12) #25
  %14 = load ptr, ptr %3, align 8, !tbaa !57
  %15 = getelementptr inbounds nuw %struct.gzfile, ptr %14, i32 0, i32 10
  %16 = load i64, ptr %15, align 8, !tbaa !139
  %17 = sub nsw i64 %16, %13
  store i64 %17, ptr %15, align 8, !tbaa !139
  br label %40

18:                                               ; preds = %2
  %19 = load ptr, ptr %3, align 8, !tbaa !57
  %20 = getelementptr inbounds nuw %struct.gzfile, ptr %19, i32 0, i32 7
  %21 = load i64, ptr %20, align 8, !tbaa !50
  %22 = and i64 %21, 4294967295
  %23 = load i64, ptr %4, align 8, !tbaa !6
  %24 = call ptr @RSTRING_PTR(i64 noundef %23)
  %25 = load ptr, ptr %3, align 8, !tbaa !57
  %26 = getelementptr inbounds nuw %struct.gzfile, ptr %25, i32 0, i32 10
  %27 = load i64, ptr %26, align 8, !tbaa !139
  %28 = getelementptr inbounds i8, ptr %24, i64 %27
  %29 = load i64, ptr %4, align 8, !tbaa !6
  %30 = call i64 @RSTRING_LEN(i64 noundef %29) #25
  %31 = load ptr, ptr %3, align 8, !tbaa !57
  %32 = getelementptr inbounds nuw %struct.gzfile, ptr %31, i32 0, i32 10
  %33 = load i64, ptr %32, align 8, !tbaa !139
  %34 = sub nsw i64 %30, %33
  %35 = call i64 @crc32_z(i64 noundef %22, ptr noundef %28, i64 noundef %34)
  %36 = load ptr, ptr %3, align 8, !tbaa !57
  %37 = getelementptr inbounds nuw %struct.gzfile, ptr %36, i32 0, i32 7
  store i64 %35, ptr %37, align 8, !tbaa !50
  %38 = load ptr, ptr %3, align 8, !tbaa !57
  %39 = getelementptr inbounds nuw %struct.gzfile, ptr %38, i32 0, i32 10
  store i64 0, ptr %39, align 8, !tbaa !139
  br label %40

40:                                               ; preds = %18, %11
  ret void
}

; Function Attrs: inlinehint nounwind sspstrong uwtable
define internal ptr @RSTRING_PTR(i64 noundef %0) #3 {
  %2 = alloca i64, align 8
  %3 = alloca ptr, align 8
  %4 = alloca %struct.RString, align 8
  store i64 %0, ptr %2, align 8, !tbaa !6
  call void @llvm.lifetime.start.p0(i64 8, ptr %3) #23
  %5 = load i64, ptr %2, align 8, !tbaa !6
  call void @rbimpl_rstring_getmem(ptr dead_on_unwind writable sret(%struct.RString) align 8 %4, i64 noundef %5) #28
  %6 = getelementptr inbounds nuw %struct.RString, ptr %4, i32 0, i32 2
  %7 = getelementptr inbounds nuw %struct.anon, ptr %6, i32 0, i32 0
  %8 = load ptr, ptr %7, align 8, !tbaa !68
  store ptr %8, ptr %3, align 8, !tbaa !19
  %9 = load ptr, ptr %3, align 8, !tbaa !19
  call void @llvm.lifetime.end.p0(i64 8, ptr %3) #23
  ret ptr %9
}

; Function Attrs: inlinehint nounwind sspstrong willreturn memory(read) uwtable
define internal i64 @RSTRING_LEN(i64 noundef %0) #6 {
  %2 = alloca i64, align 8
  store i64 %0, ptr %2, align 8, !tbaa !6
  %3 = load i64, ptr %2, align 8, !tbaa !6
  %4 = inttoptr i64 %3 to ptr
  %5 = getelementptr inbounds nuw %struct.RString, ptr %4, i32 0, i32 1
  %6 = load i64, ptr %5, align 8, !tbaa !88
  ret i64 %6
}

; Function Attrs: inlinehint nounwind sspstrong willreturn memory(none) uwtable
define internal zeroext i1 @RB_NIL_P(i64 noundef %0) #5 {
  %2 = alloca i64, align 8
  store i64 %0, ptr %2, align 8, !tbaa !6
  %3 = load i64, ptr %2, align 8, !tbaa !6
  %4 = icmp eq i64 %3, 4
  ret i1 %4
}

; Function Attrs: nounwind sspstrong uwtable
define internal void @gzreader_skip_linebreaks(ptr noundef %0) #0 {
  %2 = alloca ptr, align 8
  %3 = alloca i64, align 8
  %4 = alloca ptr, align 8
  %5 = alloca i32, align 4
  %6 = alloca i32, align 4
  store ptr %0, ptr %2, align 8, !tbaa !57
  call void @llvm.lifetime.start.p0(i64 8, ptr %3) #23
  call void @llvm.lifetime.start.p0(i64 8, ptr %4) #23
  call void @llvm.lifetime.start.p0(i64 4, ptr %5) #23
  br label %7

7:                                                ; preds = %47, %1
  %8 = load ptr, ptr %2, align 8, !tbaa !57
  %9 = getelementptr inbounds nuw %struct.gzfile, ptr %8, i32 0, i32 0
  %10 = getelementptr inbounds nuw %struct.zstream, ptr %9, i32 0, i32 1
  %11 = load i64, ptr %10, align 8, !tbaa !60
  %12 = call zeroext i1 @RB_NIL_P(i64 noundef %11) #24
  br i1 %12, label %13, label %14

13:                                               ; preds = %7
  br label %20

14:                                               ; preds = %7
  %15 = load ptr, ptr %2, align 8, !tbaa !57
  %16 = getelementptr inbounds nuw %struct.gzfile, ptr %15, i32 0, i32 0
  %17 = getelementptr inbounds nuw %struct.zstream, ptr %16, i32 0, i32 1
  %18 = load i64, ptr %17, align 8, !tbaa !60
  %19 = call i64 @RSTRING_LEN(i64 noundef %18) #25
  br label %20

20:                                               ; preds = %14, %13
  %21 = phi i64 [ 0, %13 ], [ %19, %14 ]
  %22 = icmp eq i64 %21, 0
  br i1 %22, label %23, label %50

23:                                               ; preds = %20
  %24 = load ptr, ptr %2, align 8, !tbaa !57
  %25 = getelementptr inbounds nuw %struct.gzfile, ptr %24, i32 0, i32 0
  %26 = getelementptr inbounds nuw %struct.zstream, ptr %25, i32 0, i32 0
  %27 = load i64, ptr %26, align 8, !tbaa !59
  %28 = and i64 %27, 4
  %29 = icmp ne i64 %28, 0
  br i1 %29, label %30, label %47

30:                                               ; preds = %23
  %31 = load ptr, ptr %2, align 8, !tbaa !57
  %32 = getelementptr inbounds nuw %struct.gzfile, ptr %31, i32 0, i32 0
  %33 = getelementptr inbounds nuw %struct.zstream, ptr %32, i32 0, i32 1
  %34 = load i64, ptr %33, align 8, !tbaa !60
  %35 = call zeroext i1 @RB_NIL_P(i64 noundef %34) #24
  br i1 %35, label %36, label %37

36:                                               ; preds = %30
  br label %43

37:                                               ; preds = %30
  %38 = load ptr, ptr %2, align 8, !tbaa !57
  %39 = getelementptr inbounds nuw %struct.gzfile, ptr %38, i32 0, i32 0
  %40 = getelementptr inbounds nuw %struct.zstream, ptr %39, i32 0, i32 1
  %41 = load i64, ptr %40, align 8, !tbaa !60
  %42 = call i64 @RSTRING_LEN(i64 noundef %41) #25
  br label %43

43:                                               ; preds = %37, %36
  %44 = phi i64 [ 0, %36 ], [ %42, %37 ]
  %45 = icmp eq i64 %44, 0
  br i1 %45, label %46, label %47

46:                                               ; preds = %43
  store i32 1, ptr %6, align 4
  br label %150

47:                                               ; preds = %43, %23
  %48 = load ptr, ptr %2, align 8, !tbaa !57
  %49 = call i64 @gzfile_read_more(ptr noundef %48, i64 noundef 4)
  br label %7, !llvm.loop !158

50:                                               ; preds = %20
  store i32 0, ptr %5, align 4, !tbaa !10
  %51 = load ptr, ptr %2, align 8, !tbaa !57
  %52 = getelementptr inbounds nuw %struct.gzfile, ptr %51, i32 0, i32 0
  %53 = getelementptr inbounds nuw %struct.zstream, ptr %52, i32 0, i32 1
  %54 = load i64, ptr %53, align 8, !tbaa !60
  %55 = call ptr @RSTRING_PTR(i64 noundef %54)
  store ptr %55, ptr %4, align 8, !tbaa !19
  br label %56

56:                                               ; preds = %140, %50
  %57 = load i32, ptr %5, align 4, !tbaa !10
  %58 = add nsw i32 %57, 1
  store i32 %58, ptr %5, align 4, !tbaa !10
  %59 = load ptr, ptr %4, align 8, !tbaa !19
  %60 = getelementptr inbounds nuw i8, ptr %59, i32 1
  store ptr %60, ptr %4, align 8, !tbaa !19
  %61 = load i8, ptr %59, align 1, !tbaa !68
  %62 = sext i8 %61 to i32
  %63 = icmp eq i32 %62, 10
  br i1 %63, label %64, label %141

64:                                               ; preds = %56
  %65 = load i32, ptr %5, align 4, !tbaa !10
  %66 = sext i32 %65 to i64
  %67 = load ptr, ptr %2, align 8, !tbaa !57
  %68 = getelementptr inbounds nuw %struct.gzfile, ptr %67, i32 0, i32 0
  %69 = getelementptr inbounds nuw %struct.zstream, ptr %68, i32 0, i32 1
  %70 = load i64, ptr %69, align 8, !tbaa !60
  %71 = call zeroext i1 @RB_NIL_P(i64 noundef %70) #24
  br i1 %71, label %72, label %73

72:                                               ; preds = %64
  br label %79

73:                                               ; preds = %64
  %74 = load ptr, ptr %2, align 8, !tbaa !57
  %75 = getelementptr inbounds nuw %struct.gzfile, ptr %74, i32 0, i32 0
  %76 = getelementptr inbounds nuw %struct.zstream, ptr %75, i32 0, i32 1
  %77 = load i64, ptr %76, align 8, !tbaa !60
  %78 = call i64 @RSTRING_LEN(i64 noundef %77) #25
  br label %79

79:                                               ; preds = %73, %72
  %80 = phi i64 [ 0, %72 ], [ %78, %73 ]
  %81 = icmp sge i64 %66, %80
  br i1 %81, label %82, label %140

82:                                               ; preds = %79
  %83 = load ptr, ptr %2, align 8, !tbaa !57
  %84 = getelementptr inbounds nuw %struct.gzfile, ptr %83, i32 0, i32 0
  %85 = call i64 @zstream_detach_buffer(ptr noundef %84)
  store i64 %85, ptr %3, align 8, !tbaa !6
  %86 = load i64, ptr %3, align 8, !tbaa !6
  %87 = call zeroext i1 @RB_NIL_P(i64 noundef %86) #24
  %88 = xor i1 %87, true
  call void @llvm.assume(i1 %88)
  %89 = load ptr, ptr %2, align 8, !tbaa !57
  %90 = load i64, ptr %3, align 8, !tbaa !6
  call void @gzfile_calc_crc(ptr noundef %89, i64 noundef %90)
  br label %91

91:                                               ; preds = %131, %82
  %92 = load ptr, ptr %2, align 8, !tbaa !57
  %93 = getelementptr inbounds nuw %struct.gzfile, ptr %92, i32 0, i32 0
  %94 = getelementptr inbounds nuw %struct.zstream, ptr %93, i32 0, i32 1
  %95 = load i64, ptr %94, align 8, !tbaa !60
  %96 = call zeroext i1 @RB_NIL_P(i64 noundef %95) #24
  br i1 %96, label %97, label %98

97:                                               ; preds = %91
  br label %104

98:                                               ; preds = %91
  %99 = load ptr, ptr %2, align 8, !tbaa !57
  %100 = getelementptr inbounds nuw %struct.gzfile, ptr %99, i32 0, i32 0
  %101 = getelementptr inbounds nuw %struct.zstream, ptr %100, i32 0, i32 1
  %102 = load i64, ptr %101, align 8, !tbaa !60
  %103 = call i64 @RSTRING_LEN(i64 noundef %102) #25
  br label %104

104:                                              ; preds = %98, %97
  %105 = phi i64 [ 0, %97 ], [ %103, %98 ]
  %106 = icmp eq i64 %105, 0
  br i1 %106, label %107, label %134

107:                                              ; preds = %104
  %108 = load ptr, ptr %2, align 8, !tbaa !57
  %109 = getelementptr inbounds nuw %struct.gzfile, ptr %108, i32 0, i32 0
  %110 = getelementptr inbounds nuw %struct.zstream, ptr %109, i32 0, i32 0
  %111 = load i64, ptr %110, align 8, !tbaa !59
  %112 = and i64 %111, 4
  %113 = icmp ne i64 %112, 0
  br i1 %113, label %114, label %131

114:                                              ; preds = %107
  %115 = load ptr, ptr %2, align 8, !tbaa !57
  %116 = getelementptr inbounds nuw %struct.gzfile, ptr %115, i32 0, i32 0
  %117 = getelementptr inbounds nuw %struct.zstream, ptr %116, i32 0, i32 1
  %118 = load i64, ptr %117, align 8, !tbaa !60
  %119 = call zeroext i1 @RB_NIL_P(i64 noundef %118) #24
  br i1 %119, label %120, label %121

120:                                              ; preds = %114
  br label %127

121:                                              ; preds = %114
  %122 = load ptr, ptr %2, align 8, !tbaa !57
  %123 = getelementptr inbounds nuw %struct.gzfile, ptr %122, i32 0, i32 0
  %124 = getelementptr inbounds nuw %struct.zstream, ptr %123, i32 0, i32 1
  %125 = load i64, ptr %124, align 8, !tbaa !60
  %126 = call i64 @RSTRING_LEN(i64 noundef %125) #25
  br label %127

127:                                              ; preds = %121, %120
  %128 = phi i64 [ 0, %120 ], [ %126, %121 ]
  %129 = icmp eq i64 %128, 0
  br i1 %129, label %130, label %131

130:                                              ; preds = %127
  store i32 1, ptr %6, align 4
  br label %150

131:                                              ; preds = %127, %107
  %132 = load ptr, ptr %2, align 8, !tbaa !57
  %133 = call i64 @gzfile_read_more(ptr noundef %132, i64 noundef 4)
  br label %91, !llvm.loop !159

134:                                              ; preds = %104
  store i32 0, ptr %5, align 4, !tbaa !10
  %135 = load ptr, ptr %2, align 8, !tbaa !57
  %136 = getelementptr inbounds nuw %struct.gzfile, ptr %135, i32 0, i32 0
  %137 = getelementptr inbounds nuw %struct.zstream, ptr %136, i32 0, i32 1
  %138 = load i64, ptr %137, align 8, !tbaa !60
  %139 = call ptr @RSTRING_PTR(i64 noundef %138)
  store ptr %139, ptr %4, align 8, !tbaa !19
  br label %140

140:                                              ; preds = %134, %79
  br label %56, !llvm.loop !160

141:                                              ; preds = %56
  %142 = load ptr, ptr %2, align 8, !tbaa !57
  %143 = getelementptr inbounds nuw %struct.gzfile, ptr %142, i32 0, i32 0
  %144 = load i32, ptr %5, align 4, !tbaa !10
  %145 = sub nsw i32 %144, 1
  %146 = sext i32 %145 to i64
  %147 = call i64 @zstream_shift_buffer(ptr noundef %143, i64 noundef %146, i64 noundef 4)
  store i64 %147, ptr %3, align 8, !tbaa !6
  %148 = load ptr, ptr %2, align 8, !tbaa !57
  %149 = load i64, ptr %3, align 8, !tbaa !6
  call void @gzfile_calc_crc(ptr noundef %148, i64 noundef %149)
  store i32 0, ptr %6, align 4
  br label %150

150:                                              ; preds = %141, %130, %46
  call void @llvm.lifetime.end.p0(i64 4, ptr %5) #23
  call void @llvm.lifetime.end.p0(i64 8, ptr %4) #23
  call void @llvm.lifetime.end.p0(i64 8, ptr %3) #23
  %151 = load i32, ptr %6, align 4
  switch i32 %151, label %153 [
    i32 0, label %152
    i32 1, label %152
  ]

152:                                              ; preds = %150, %150
  ret void

153:                                              ; preds = %150
  unreachable
}