; Function Attrs: nounwind sspstrong uwtable
define internal fastcc void @gzreader_skip_linebreaks(ptr noundef %0) unnamed_addr #0 {
  %2 = getelementptr inbounds nuw i8, ptr %0, i64 8
  br label %3

3:                                                ; preds = %15, %1
  %4 = load i64, ptr %2, align 8, !tbaa !132
  %5 = icmp eq i64 %4, 4
  br i1 %5, label %.critedge, label %6

6:                                                ; preds = %3
  %7 = inttoptr i64 %4 to ptr
  %8 = getelementptr inbounds nuw i8, ptr %7, i64 16
  %9 = load i64, ptr %8, align 8, !tbaa !21
  %10 = icmp eq i64 %9, 0
  br i1 %10, label %.critedge.thread, label %16

.critedge:                                        ; preds = %3
  %11 = load i64, ptr %0, align 8, !tbaa !113
  %12 = and i64 %11, 4
  %.not29 = icmp eq i64 %12, 0
  br i1 %.not29, label %15, label %.critedge31

.critedge.thread:                                 ; preds = %6
  %13 = load i64, ptr %0, align 8, !tbaa !113
  %14 = and i64 %13, 4
  %.not2947 = icmp eq i64 %14, 0
  br i1 %.not2947, label %15, label %.critedge31

15:                                               ; preds = %.critedge.thread, %.critedge
  tail call fastcc void @gzfile_read_more(ptr noundef nonnull %0, i64 noundef 4)
  br label %3, !llvm.loop !347

16:                                               ; preds = %6
  %17 = load i64, ptr %7, align 8, !tbaa !16, !noalias !348
  %18 = and i64 %17, 8192
  %.not.i.i = icmp eq i64 %18, 0
  %19 = getelementptr inbounds nuw i8, ptr %7, i64 24
  br i1 %.not.i.i, label %RSTRING_PTR.exit, label %20

20:                                               ; preds = %16
  %.sroa.2.0.copyload.i = load ptr, ptr %19, align 8
  br label %RSTRING_PTR.exit

RSTRING_PTR.exit:                                 ; preds = %16, %20
  %.sroa.2.0.i = phi ptr [ %.sroa.2.0.copyload.i, %20 ], [ %19, %16 ]
  %21 = load i8, ptr %.sroa.2.0.i, align 1, !tbaa !149
  %22 = icmp eq i8 %21, 10
  br i1 %22, label %.lr.ph, label %._crit_edge

.lr.ph:                                           ; preds = %RSTRING_PTR.exit
  %23 = getelementptr inbounds nuw i8, ptr %0, i64 208
  %24 = getelementptr inbounds nuw i8, ptr %0, i64 192
  br label %25

25:                                               ; preds = %.lr.ph, %RSTRING_PTR.exit39
  %26 = phi i64 [ %4, %.lr.ph ], [ %74, %RSTRING_PTR.exit39 ]
  %.sroa.2.0.i.pn = phi ptr [ %.sroa.2.0.i, %.lr.ph ], [ %.127, %RSTRING_PTR.exit39 ]
  %27 = phi i32 [ 1, %.lr.ph ], [ %75, %RSTRING_PTR.exit39 ]
  %28 = getelementptr inbounds nuw i8, ptr %.sroa.2.0.i.pn, i64 1
  %29 = sext i32 %27 to i64
  %30 = icmp eq i64 %26, 4
  br i1 %30, label %35, label %31

31:                                               ; preds = %25
  %32 = inttoptr i64 %26 to ptr
  %33 = getelementptr inbounds nuw i8, ptr %32, i64 16
  %34 = load i64, ptr %33, align 8, !tbaa !21
  br label %35

35:                                               ; preds = %25, %31
  %36 = phi i64 [ %34, %31 ], [ 0, %25 ]
  %.not = icmp sgt i64 %36, %29
  br i1 %.not, label %RSTRING_PTR.exit39, label %37

37:                                               ; preds = %35
  %38 = tail call fastcc i64 @zstream_detach_buffer(ptr noundef nonnull %0)
  %39 = icmp ne i64 %38, 4
  tail call void @llvm.assume(i1 %39)
  %40 = inttoptr i64 %38 to ptr
  %41 = getelementptr inbounds nuw i8, ptr %40, i64 16
  %42 = load i64, ptr %41, align 8, !tbaa !21
  %43 = load i64, ptr %23, align 8, !tbaa !156
  %.not.i = icmp sgt i64 %42, %43
  br i1 %.not.i, label %46, label %44

44:                                               ; preds = %37
  %45 = sub nsw i64 %43, %42
  br label %gzfile_calc_crc.exit

46:                                               ; preds = %37
  %47 = load i64, ptr %24, align 8, !tbaa !118
  %48 = and i64 %47, 4294967295
  %49 = load i64, ptr %40, align 8, !tbaa !16, !noalias !351
  %50 = and i64 %49, 8192
  %.not.i.i.i = icmp eq i64 %50, 0
  %51 = getelementptr inbounds nuw i8, ptr %40, i64 24
  br i1 %.not.i.i.i, label %RSTRING_PTR.exit.i, label %52

52:                                               ; preds = %46
  %.sroa.2.0.copyload.i.i = load ptr, ptr %51, align 8
  br label %RSTRING_PTR.exit.i

RSTRING_PTR.exit.i:                               ; preds = %52, %46
  %.sroa.2.0.i.i = phi ptr [ %.sroa.2.0.copyload.i.i, %52 ], [ %51, %46 ]
  %53 = getelementptr inbounds i8, ptr %.sroa.2.0.i.i, i64 %43
  %54 = sub nsw i64 %42, %43
  %55 = tail call i64 @crc32_z(i64 noundef %48, ptr noundef %53, i64 noundef %54) #18
  store i64 %55, ptr %24, align 8, !tbaa !118
  br label %gzfile_calc_crc.exit

gzfile_calc_crc.exit:                             ; preds = %44, %RSTRING_PTR.exit.i
  %storemerge.i = phi i64 [ 0, %RSTRING_PTR.exit.i ], [ %45, %44 ]
  store i64 %storemerge.i, ptr %23, align 8, !tbaa !156
  br label %56

56:                                               ; preds = %68, %gzfile_calc_crc.exit
  %57 = load i64, ptr %2, align 8, !tbaa !132
  %58 = icmp eq i64 %57, 4
  br i1 %58, label %.critedge33, label %59

59:                                               ; preds = %56
  %60 = inttoptr i64 %57 to ptr
  %61 = getelementptr inbounds nuw i8, ptr %60, i64 16
  %62 = load i64, ptr %61, align 8, !tbaa !21
  %63 = icmp eq i64 %62, 0
  br i1 %63, label %.critedge33.thread, label %69

.critedge33:                                      ; preds = %56
  %64 = load i64, ptr %0, align 8, !tbaa !113
  %65 = and i64 %64, 4
  %.not28 = icmp eq i64 %65, 0
  br i1 %.not28, label %68, label %.critedge31

.critedge33.thread:                               ; preds = %59
  %66 = load i64, ptr %0, align 8, !tbaa !113
  %67 = and i64 %66, 4
  %.not2848 = icmp eq i64 %67, 0
  br i1 %.not2848, label %68, label %.critedge31

68:                                               ; preds = %.critedge33.thread, %.critedge33
  tail call fastcc void @gzfile_read_more(ptr noundef nonnull %0, i64 noundef 4)
  br label %56, !llvm.loop !354

69:                                               ; preds = %59
  %70 = load i64, ptr %60, align 8, !tbaa !16, !noalias !355
  %71 = and i64 %70, 8192
  %.not.i.i36 = icmp eq i64 %71, 0
  %72 = getelementptr inbounds nuw i8, ptr %60, i64 24
  br i1 %.not.i.i36, label %RSTRING_PTR.exit39, label %73

73:                                               ; preds = %69
  %.sroa.2.0.copyload.i37 = load ptr, ptr %72, align 8
  br label %RSTRING_PTR.exit39

RSTRING_PTR.exit39:                               ; preds = %73, %69, %35
  %74 = phi i64 [ %26, %35 ], [ %57, %73 ], [ %57, %69 ]
  %.127 = phi ptr [ %28, %35 ], [ %.sroa.2.0.copyload.i37, %73 ], [ %72, %69 ]
  %.1 = phi i32 [ %27, %35 ], [ 0, %73 ], [ 0, %69 ]
  %75 = add nsw i32 %.1, 1
  %76 = load i8, ptr %.127, align 1, !tbaa !149
  %77 = icmp eq i8 %76, 10
  br i1 %77, label %25, label %._crit_edge.loopexit, !llvm.loop !358

._crit_edge.loopexit:                             ; preds = %RSTRING_PTR.exit39
  %78 = sext i32 %.1 to i64
  br label %._crit_edge

._crit_edge:                                      ; preds = %._crit_edge.loopexit, %RSTRING_PTR.exit
  %.0.lcssa = phi i64 [ 0, %RSTRING_PTR.exit ], [ %78, %._crit_edge.loopexit ]
  %79 = tail call fastcc i64 @zstream_shift_buffer(ptr noundef %0, i64 noundef %.0.lcssa, i64 noundef 4)
  %80 = inttoptr i64 %79 to ptr
  %81 = getelementptr inbounds nuw i8, ptr %80, i64 16
  %82 = load i64, ptr %81, align 8, !tbaa !21
  %83 = getelementptr inbounds nuw i8, ptr %0, i64 208
  %84 = load i64, ptr %83, align 8, !tbaa !156
  %.not.i40 = icmp sgt i64 %82, %84
  br i1 %.not.i40, label %87, label %85

85:                                               ; preds = %._crit_edge
  %86 = sub nsw i64 %84, %82
  br label %gzfile_calc_crc.exit46

87:                                               ; preds = %._crit_edge
  %88 = getelementptr inbounds nuw i8, ptr %0, i64 192
  %89 = load i64, ptr %88, align 8, !tbaa !118
  %90 = and i64 %89, 4294967295
  %91 = load i64, ptr %80, align 8, !tbaa !16, !noalias !359
  %92 = and i64 %91, 8192
  %.not.i.i.i42 = icmp eq i64 %92, 0
  %93 = getelementptr inbounds nuw i8, ptr %80, i64 24
  br i1 %.not.i.i.i42, label %RSTRING_PTR.exit.i44, label %94

94:                                               ; preds = %87
  %.sroa.2.0.copyload.i.i43 = load ptr, ptr %93, align 8
  br label %RSTRING_PTR.exit.i44

RSTRING_PTR.exit.i44:                             ; preds = %94, %87
  %.sroa.2.0.i.i45 = phi ptr [ %.sroa.2.0.copyload.i.i43, %94 ], [ %93, %87 ]
  %95 = getelementptr inbounds i8, ptr %.sroa.2.0.i.i45, i64 %84
  %96 = sub nsw i64 %82, %84
  %97 = tail call i64 @crc32_z(i64 noundef %90, ptr noundef %95, i64 noundef %96) #18
  store i64 %97, ptr %88, align 8, !tbaa !118
  br label %gzfile_calc_crc.exit46

gzfile_calc_crc.exit46:                           ; preds = %85, %RSTRING_PTR.exit.i44
  %storemerge.i41 = phi i64 [ 0, %RSTRING_PTR.exit.i44 ], [ %86, %85 ]
  store i64 %storemerge.i41, ptr %83, align 8, !tbaa !156
  br label %.critedge31

.critedge31:                                      ; preds = %.critedge, %.critedge.thread, %.critedge33, %.critedge33.thread, %gzfile_calc_crc.exit46
  ret void
}